target datalayout = "e-m:e-p270:32:32-p271:32:32-p272:64:64-i64:64-i128:128-f80:128-n8:16:32:64-S128"
target triple = "x86_64-pc-linux-gnu"

%class.ValueType = type { ptr, i32, i32 }

@g_assert_poison = external global ptr, align 8
@.str = private unnamed_addr constant [38 x i8] c"src/hotspot/share/c1/c1_ValueType.cpp\00", align 1

; Function Attrs: mustprogress nounwind uwtable
define linkonce_odr hidden noundef i32 @_ZNK9ValueType3tagEv(ptr noundef nonnull align 8 dereferenceable(16) %0) #1 comdat align 2 {
  %2 = alloca ptr, align 8
  store ptr %0, ptr %2, align 8
  %3 = load ptr, ptr %2, align 8
  %4 = getelementptr inbounds %class.ValueType, ptr %3, i32 0, i32 2
  %5 = load i32, ptr %4, align 4
  ret i32 %5
}

; Function Attrs: mustprogress nounwind uwtable
define hidden noundef zeroext i8 @_Z12as_BasicTypeP9ValueType(ptr noundef %0) #1 {
  %2 = alloca i8, align 1
  %3 = alloca ptr, align 8
  store ptr %0, ptr %3, align 8
  %4 = load ptr, ptr %3, align 8
  %5 = call noundef i32 @_ZNK9ValueType3tagEv(ptr noundef nonnull align 8 dereferenceable(16) %4)
  switch i32 %5, label %15 [
    i32 7, label %6
    i32 0, label %7
    i32 1, label %8
    i32 2, label %9
    i32 3, label %10
    i32 4, label %11
    i32 6, label %12
    i32 5, label %13
    i32 8, label %14
  ]

6:                                                ; preds = %1
  store i8 14, ptr %2, align 1
  br label %19

7:                                                ; preds = %1
  store i8 10, ptr %2, align 1
  br label %19

8:                                                ; preds = %1
  store i8 11, ptr %2, align 1
  br label %19

9:                                                ; preds = %1
  store i8 6, ptr %2, align 1
  br label %19

10:                                               ; preds = %1
  store i8 7, ptr %2, align 1
  br label %19

11:                                               ; preds = %1
  store i8 12, ptr %2, align 1
  br label %19

12:                                               ; preds = %1
  store i8 17, ptr %2, align 1
  br label %19

13:                                               ; preds = %1
  store i8 15, ptr %2, align 1
  br label %19

14:                                               ; preds = %1
  store i8 99, ptr %2, align 1
  br label %19

15:                                               ; preds = %1
  br label %16

16:                                               ; preds = %15
  %17 = load ptr, ptr @g_assert_poison, align 8
  store i8 88, ptr %17, align 1
  call void @_Z28report_should_not_reach_herePKci(ptr noundef @.str, i32 noundef 188) #6
  unreachable

18:                                               ; No predecessors!
  store i8 99, ptr %2, align 1
  br label %19

19:                                               ; preds = %18, %14, %13, %12, %11, %10, %9, %8, %7, %6
  %20 = load i8, ptr %2, align 1
  ret i8 %20
}