; Function Attrs: mustprogress nounwind uwtable
define hidden noundef zeroext range(i8 6, 100) i8 @_Z12as_BasicTypeP9ValueType(ptr nocapture noundef readonly %0) local_unnamed_addr #0 {
  %2 = getelementptr inbounds i8, ptr %0, i64 12
  %3 = load i32, ptr %2, align 4
  %4 = icmp ult i32 %3, 9
  br i1 %4, label %switch.lookup, label %5

5:                                                ; preds = %1
  %6 = load ptr, ptr @g_assert_poison, align 8
  store i8 88, ptr %6, align 1
  tail call void @_Z28report_should_not_reach_herePKci(ptr noundef nonnull @.str, i32 noundef 188) #7
  unreachable

switch.lookup:                                    ; preds = %1
  %7 = zext nneg i32 %3 to i64
  %switch.gep = getelementptr inbounds [9 x i8], ptr @switch.table._Z12as_BasicTypeP9ValueType, i64 0, i64 %7
  %switch.load = load i8, ptr %switch.gep, align 1
  ret i8 %switch.load
}